target datalayout = "e-m:e-p270:32:32-p271:32:32-p272:64:64-i64:64-i128:128-f80:128-n8:16:32:64-S128"
target triple = "x86_64-pc-linux-gnu"

%class.LIR_Opr = type { i64 }
%class.Instruction = type { ptr, i32, i32, i32, ptr, ptr, ptr, %class.LIR_Opr, i32, ptr, ptr, ptr, ptr }
%class.AccessArray = type { %class.Instruction, ptr }

; Function Attrs: mustprogress nounwind uwtable
define linkonce_odr hidden noundef ptr @_ZNK11Instruction4typeEv(ptr noundef nonnull align 8 dereferenceable(96) %0) #1 comdat align 2 {
  %2 = alloca ptr, align 8
  store ptr %0, ptr %2, align 8
  %3 = load ptr, ptr %2, align 8
  %4 = getelementptr inbounds %class.Instruction, ptr %3, i32 0, i32 4
  %5 = load ptr, ptr %4, align 8
  ret ptr %5
}

; Function Attrs: mustprogress nounwind uwtable
define linkonce_odr hidden noundef ptr @_ZNK11AccessArray5arrayEv(ptr noundef nonnull align 8 dereferenceable(104) %0) #1 comdat align 2 {
  %2 = alloca ptr, align 8
  store ptr %0, ptr %2, align 8
  %3 = load ptr, ptr %2, align 8
  %4 = getelementptr inbounds %class.AccessArray, ptr %3, i32 0, i32 1
  %5 = load ptr, ptr %4, align 8
  ret ptr %5
}

; Function Attrs: mustprogress nounwind uwtable
define hidden noundef zeroext i1 @_ZN20RangeCheckEliminator24is_ok_for_deoptimizationEP11InstructionS1_S1_S1_iS1_i(ptr noundef nonnull align 8 dereferenceable(88) %0, ptr noundef %1, ptr noundef %2, ptr noundef %3, ptr noundef %4, i32 noundef %5, ptr noundef %6, i32 noundef %7) #1 align 2 {
  %9 = alloca i1, align 1
  %10 = alloca ptr, align 8
  %11 = alloca ptr, align 8
  %12 = alloca ptr, align 8
  %13 = alloca ptr, align 8
  %14 = alloca ptr, align 8
  %15 = alloca i32, align 4
  %16 = alloca ptr, align 8
  %17 = alloca i32, align 4
  %18 = alloca i8, align 1
  store ptr %0, ptr %10, align 8
  store ptr %1, ptr %11, align 8
  store ptr %2, ptr %12, align 8
  store ptr %3, ptr %13, align 8
  store ptr %4, ptr %14, align 8
  store i32 %5, ptr %15, align 4
  store ptr %6, ptr %16, align 8
  store i32 %7, ptr %17, align 4
  store i8 1, ptr %18, align 1
  %19 = load ptr, ptr %16, align 8
  %20 = icmp ne ptr %19, null
  br i1 %20, label %21, label %42

21:                                               ; preds = %8
  %22 = load ptr, ptr %16, align 8
  %23 = load ptr, ptr %22, align 8
  %24 = getelementptr inbounds ptr, ptr %23, i64 9
  %25 = load ptr, ptr %24, align 8
  %26 = call noundef ptr %25(ptr noundef nonnull align 8 dereferenceable(96) %22)
  %27 = icmp ne ptr %26, null
  br i1 %27, label %28, label %42

28:                                               ; preds = %21
  %29 = load ptr, ptr %16, align 8
  %30 = load ptr, ptr %29, align 8
  %31 = getelementptr inbounds ptr, ptr %30, i64 9
  %32 = load ptr, ptr %31, align 8
  %33 = call noundef ptr %32(ptr noundef nonnull align 8 dereferenceable(96) %29)
  %34 = call noundef ptr @_ZNK11AccessArray5arrayEv(ptr noundef nonnull align 8 dereferenceable(104) %33)
  %35 = load ptr, ptr %12, align 8
  %36 = icmp eq ptr %34, %35
  br i1 %36, label %37, label %42

37:                                               ; preds = %28
  %38 = load i32, ptr %17, align 4
  %39 = icmp sge i32 %38, 0
  br i1 %39, label %40, label %41

40:                                               ; preds = %37
  store i1 false, ptr %9, align 1
  br label %86

41:                                               ; preds = %37
  store i8 0, ptr %18, align 1
  br label %42

42:                                               ; preds = %41, %28, %21, %8
  %43 = load ptr, ptr %14, align 8
  %44 = icmp ne ptr %43, null
  br i1 %44, label %45, label %66

45:                                               ; preds = %42
  %46 = load ptr, ptr %14, align 8
  %47 = load ptr, ptr %46, align 8
  %48 = getelementptr inbounds ptr, ptr %47, i64 9
  %49 = load ptr, ptr %48, align 8
  %50 = call noundef ptr %49(ptr noundef nonnull align 8 dereferenceable(96) %46)
  %51 = icmp ne ptr %50, null
  br i1 %51, label %52, label %66

52:                                               ; preds = %45
  %53 = load ptr, ptr %14, align 8
  %54 = load ptr, ptr %53, align 8
  %55 = getelementptr inbounds ptr, ptr %54, i64 9
  %56 = load ptr, ptr %55, align 8
  %57 = call noundef ptr %56(ptr noundef nonnull align 8 dereferenceable(96) %53)
  %58 = call noundef ptr @_ZNK11AccessArray5arrayEv(ptr noundef nonnull align 8 dereferenceable(104) %57)
  %59 = load ptr, ptr %12, align 8
  %60 = icmp eq ptr %58, %59
  br i1 %60, label %61, label %66

61:                                               ; preds = %52
  %62 = load i32, ptr %15, align 4
  %63 = icmp sgt i32 %62, 0
  br i1 %63, label %64, label %65

64:                                               ; preds = %61
  store i1 false, ptr %9, align 1
  br label %86

65:                                               ; preds = %61
  br label %66

66:                                               ; preds = %65, %52, %45, %42
  %67 = load i8, ptr %18, align 1
  %68 = trunc i8 %67 to i1
  br i1 %68, label %69, label %85

69:                                               ; preds = %66
  %70 = load ptr, ptr %16, align 8
  %71 = icmp ne ptr %70, null
  br i1 %71, label %72, label %85

72:                                               ; preds = %69
  %73 = load ptr, ptr %16, align 8
  %74 = call noundef ptr @_ZNK11Instruction4typeEv(ptr noundef nonnull align 8 dereferenceable(96) %73)
  %75 = load ptr, ptr %74, align 8
  %76 = getelementptr inbounds ptr, ptr %75, i64 9
  %77 = load ptr, ptr %76, align 8
  %78 = call noundef ptr %77(ptr noundef nonnull align 8 dereferenceable(16) %74)
  %79 = icmp ne ptr %78, null
  br i1 %79, label %80, label %85

80:                                               ; preds = %72
  %81 = load ptr, ptr %16, align 8
  %82 = load ptr, ptr %12, align 8
  %83 = icmp eq ptr %81, %82
  br i1 %83, label %84, label %85

84:                                               ; preds = %80
  store i1 false, ptr %9, align 1
  br label %86

85:                                               ; preds = %80, %72, %69, %66
  store i1 true, ptr %9, align 1
  br label %86

86:                                               ; preds = %85, %84, %64, %40
  %87 = load i1, ptr %9, align 1
  ret i1 %87
}