; Function Attrs: mustprogress nounwind uwtable
define hidden noundef zeroext i1 @_ZN20RangeCheckEliminator24is_ok_for_deoptimizationEP11InstructionS1_S1_S1_iS1_i(ptr nocapture noundef nonnull readnone align 8 dereferenceable(88) %0, ptr nocapture noundef readnone %1, ptr noundef readnone %2, ptr nocapture noundef readnone %3, ptr noundef %4, i32 noundef %5, ptr noundef %6, i32 noundef %7) local_unnamed_addr #0 align 2 {
  %9 = icmp ne ptr %6, null
  br i1 %9, label %10, label %25

10:                                               ; preds = %8
  %11 = load ptr, ptr %6, align 8
  %12 = getelementptr inbounds i8, ptr %11, i64 72
  %13 = load ptr, ptr %12, align 8
  %14 = tail call noundef ptr %13(ptr noundef nonnull align 8 dereferenceable(96) %6) #13
  %.not = icmp eq ptr %14, null
  br i1 %.not, label %25, label %15

15:                                               ; preds = %10
  %16 = load ptr, ptr %6, align 8
  %17 = getelementptr inbounds i8, ptr %16, i64 72
  %18 = load ptr, ptr %17, align 8
  %19 = tail call noundef ptr %18(ptr noundef nonnull align 8 dereferenceable(96) %6) #13
  %20 = getelementptr inbounds i8, ptr %19, i64 96
  %21 = load ptr, ptr %20, align 8
  %22 = icmp eq ptr %21, %2
  br i1 %22, label %23, label %25

23:                                               ; preds = %15
  %24 = icmp sgt i32 %7, -1
  br i1 %24, label %50, label %25

25:                                               ; preds = %23, %15, %10, %8
  %.0 = phi i1 [ true, %15 ], [ true, %10 ], [ true, %8 ], [ false, %23 ]
  %.not21 = icmp eq ptr %4, null
  br i1 %.not21, label %40, label %26

26:                                               ; preds = %25
  %27 = load ptr, ptr %4, align 8
  %28 = getelementptr inbounds i8, ptr %27, i64 72
  %29 = load ptr, ptr %28, align 8
  %30 = tail call noundef ptr %29(ptr noundef nonnull align 8 dereferenceable(96) %4) #13
  %.not22 = icmp eq ptr %30, null
  br i1 %.not22, label %40, label %31

31:                                               ; preds = %26
  %32 = load ptr, ptr %4, align 8
  %33 = getelementptr inbounds i8, ptr %32, i64 72
  %34 = load ptr, ptr %33, align 8
  %35 = tail call noundef ptr %34(ptr noundef nonnull align 8 dereferenceable(96) %4) #13
  %36 = getelementptr inbounds i8, ptr %35, i64 96
  %37 = load ptr, ptr %36, align 8
  %38 = icmp eq ptr %37, %2
  %39 = icmp sgt i32 %5, 0
  %or.cond3 = and i1 %39, %38
  br i1 %or.cond3, label %50, label %40

40:                                               ; preds = %31, %26, %25
  %or.cond = and i1 %9, %.0
  br i1 %or.cond, label %41, label %49

41:                                               ; preds = %40
  %42 = getelementptr inbounds i8, ptr %6, i64 24
  %43 = load ptr, ptr %42, align 8
  %44 = load ptr, ptr %43, align 8
  %45 = getelementptr inbounds i8, ptr %44, i64 72
  %46 = load ptr, ptr %45, align 8
  %47 = tail call noundef ptr %46(ptr noundef nonnull align 8 dereferenceable(16) %43) #13
  %.not23 = icmp ne ptr %47, null
  %48 = icmp eq ptr %6, %2
  %or.cond24 = and i1 %48, %.not23
  br i1 %or.cond24, label %50, label %49

49:                                               ; preds = %41, %40
  br label %50

50:                                               ; preds = %41, %31, %23, %49
  %.018 = phi i1 [ true, %49 ], [ false, %23 ], [ false, %31 ], [ false, %41 ]
  ret i1 %.018
}